; Function Attrs: mustprogress nounwind uwtable
define dso_local noundef i32 @_ZN8Function14deleteFunctionEPS_(ptr noundef %0) local_unnamed_addr #3 align 2 {
  %2 = icmp eq ptr %0, null
  br i1 %2, label %4, label %3

3:                                                ; preds = %1
  tail call void @_ZN8FunctionD2Ev(ptr noundef nonnull align 8 dereferenceable(424) %0) #22
  tail call void @_ZdlPv(ptr noundef nonnull %0) #21
  br label %4

4:                                                ; preds = %3, %1
  ret i32 0
}